target datalayout = "e-m:e-p270:32:32-p271:32:32-p272:64:64-i64:64-i128:128-f80:128-n8:16:32:64-S128"
target triple = "x86_64-pc-linux-gnu"

; Function Attrs: nounwind uwtable
define i32 @Abc_NodeEvalMvCostInternal(i32 noundef %0, ptr noundef %1, ptr noundef %2) #0 {
  %4 = alloca i32, align 4
  %5 = alloca ptr, align 8
  %6 = alloca ptr, align 8
  %7 = alloca i32, align 4
  store i32 %0, ptr %4, align 4, !tbaa !27
  store ptr %1, ptr %5, align 8, !tbaa !150
  store ptr %2, ptr %6, align 8, !tbaa !58
  call void @llvm.lifetime.start.p0(i64 4, ptr %7) #9
  store i32 0, ptr %7, align 4, !tbaa !27
  br label %8

8:                                                ; preds = %12, %3
  %9 = load ptr, ptr %6, align 8, !tbaa !58
  %10 = load i8, ptr %9, align 1, !tbaa !57
  %11 = icmp ne i8 %10, 0
  br i1 %11, label %12, label %21

12:                                               ; preds = %8
  %13 = load ptr, ptr %6, align 8, !tbaa !58
  %14 = getelementptr inbounds nuw i8, ptr %13, i32 1
  store ptr %14, ptr %6, align 8, !tbaa !58
  %15 = load i8, ptr %13, align 1, !tbaa !57
  %16 = sext i8 %15 to i32
  %17 = icmp eq i32 %16, 10
  %18 = zext i1 %17 to i32
  %19 = load i32, ptr %7, align 4, !tbaa !27
  %20 = add nsw i32 %19, %18
  store i32 %20, ptr %7, align 4, !tbaa !27
  br label %8, !llvm.loop !151

21:                                               ; preds = %8
  %22 = load i32, ptr %7, align 4, !tbaa !27
  call void @llvm.lifetime.end.p0(i64 4, ptr %7) #9
  ret i32 %22
}