; Function Attrs: nofree norecurse nosync nounwind memory(argmem: read) uwtable
define i32 @Abc_NodeEvalMvCostInternal(i32 noundef %0, ptr noundef readnone captures(none) %1, ptr noundef readonly captures(none) %2) local_unnamed_addr #9 {
  %4 = load i8, ptr %2, align 1, !tbaa !48
  %.not5 = icmp eq i8 %4, 0
  br i1 %.not5, label %._crit_edge, label %.lr.ph

.lr.ph:                                           ; preds = %3, %.lr.ph
  %5 = phi i8 [ %10, %.lr.ph ], [ %4, %3 ]
  %.07 = phi i32 [ %9, %.lr.ph ], [ 0, %3 ]
  %.036 = phi ptr [ %6, %.lr.ph ], [ %2, %3 ]
  %6 = getelementptr inbounds nuw i8, ptr %.036, i64 1
  %7 = icmp eq i8 %5, 10
  %8 = zext i1 %7 to i32
  %9 = add nuw nsw i32 %.07, %8
  %10 = load i8, ptr %6, align 1, !tbaa !48
  %.not = icmp eq i8 %10, 0
  br i1 %.not, label %._crit_edge, label %.lr.ph, !llvm.loop !123

._crit_edge:                                      ; preds = %.lr.ph, %3
  %.0.lcssa = phi i32 [ 0, %3 ], [ %9, %.lr.ph ]
  ret i32 %.0.lcssa
}